target datalayout = "e-m:e-p270:32:32-p271:32:32-p272:64:64-i64:64-i128:128-f80:128-n8:16:32:64-S128"
target triple = "x86_64-pc-linux-gnu"

; Function Attrs: inlinehint nounwind uwtable
define internal void @put_tpel_pixels_mc01_c(ptr noundef %0, ptr noundef %1, i32 noundef %2, i32 noundef %3, i32 noundef %4) #1 {
  %6 = alloca ptr, align 8
  %7 = alloca ptr, align 8
  %8 = alloca i32, align 4
  %9 = alloca i32, align 4
  %10 = alloca i32, align 4
  %11 = alloca i32, align 4
  %12 = alloca i32, align 4
  store ptr %0, ptr %6, align 8, !tbaa !10
  store ptr %1, ptr %7, align 8, !tbaa !10
  store i32 %2, ptr %8, align 4, !tbaa !12
  store i32 %3, ptr %9, align 4, !tbaa !12
  store i32 %4, ptr %10, align 4, !tbaa !12
  call void @llvm.lifetime.start.p0(i64 4, ptr %11) #4
  call void @llvm.lifetime.start.p0(i64 4, ptr %12) #4
  store i32 0, ptr %11, align 4, !tbaa !12
  br label %13

13:                                               ; preds = %59, %5
  %14 = load i32, ptr %11, align 4, !tbaa !12
  %15 = load i32, ptr %10, align 4, !tbaa !12
  %16 = icmp slt i32 %14, %15
  br i1 %16, label %17, label %62

17:                                               ; preds = %13
  store i32 0, ptr %12, align 4, !tbaa !12
  br label %18

18:                                               ; preds = %47, %17
  %19 = load i32, ptr %12, align 4, !tbaa !12
  %20 = load i32, ptr %9, align 4, !tbaa !12
  %21 = icmp slt i32 %19, %20
  br i1 %21, label %22, label %50

22:                                               ; preds = %18
  %23 = load ptr, ptr %7, align 8, !tbaa !10
  %24 = load i32, ptr %12, align 4, !tbaa !12
  %25 = sext i32 %24 to i64
  %26 = getelementptr inbounds i8, ptr %23, i64 %25
  %27 = load i8, ptr %26, align 1, !tbaa !14
  %28 = zext i8 %27 to i32
  %29 = mul nsw i32 2, %28
  %30 = load ptr, ptr %7, align 8, !tbaa !10
  %31 = load i32, ptr %12, align 4, !tbaa !12
  %32 = load i32, ptr %8, align 4, !tbaa !12
  %33 = add nsw i32 %31, %32
  %34 = sext i32 %33 to i64
  %35 = getelementptr inbounds i8, ptr %30, i64 %34
  %36 = load i8, ptr %35, align 1, !tbaa !14
  %37 = zext i8 %36 to i32
  %38 = add nsw i32 %29, %37
  %39 = add nsw i32 %38, 1
  %40 = mul nsw i32 %39, 683
  %41 = ashr i32 %40, 11
  %42 = trunc i32 %41 to i8
  %43 = load ptr, ptr %6, align 8, !tbaa !10
  %44 = load i32, ptr %12, align 4, !tbaa !12
  %45 = sext i32 %44 to i64
  %46 = getelementptr inbounds i8, ptr %43, i64 %45
  store i8 %42, ptr %46, align 1, !tbaa !14
  br label %47

47:                                               ; preds = %22
  %48 = load i32, ptr %12, align 4, !tbaa !12
  %49 = add nsw i32 %48, 1
  store i32 %49, ptr %12, align 4, !tbaa !12
  br label %18, !llvm.loop !20

50:                                               ; preds = %18
  %51 = load i32, ptr %8, align 4, !tbaa !12
  %52 = load ptr, ptr %7, align 8, !tbaa !10
  %53 = sext i32 %51 to i64
  %54 = getelementptr inbounds i8, ptr %52, i64 %53
  store ptr %54, ptr %7, align 8, !tbaa !10
  %55 = load i32, ptr %8, align 4, !tbaa !12
  %56 = load ptr, ptr %6, align 8, !tbaa !10
  %57 = sext i32 %55 to i64
  %58 = getelementptr inbounds i8, ptr %56, i64 %57
  store ptr %58, ptr %6, align 8, !tbaa !10
  br label %59

59:                                               ; preds = %50
  %60 = load i32, ptr %11, align 4, !tbaa !12
  %61 = add nsw i32 %60, 1
  store i32 %61, ptr %11, align 4, !tbaa !12
  br label %13, !llvm.loop !21

62:                                               ; preds = %13
  call void @llvm.lifetime.end.p0(i64 4, ptr %12) #4
  call void @llvm.lifetime.end.p0(i64 4, ptr %11) #4
  ret void
}