; Function Attrs: inlinehint nofree norecurse nosync nounwind memory(argmem: readwrite) uwtable
define internal void @put_tpel_pixels_mc01_c(ptr noundef writeonly captures(none) %0, ptr noundef readonly captures(none) %1, i32 noundef %2, i32 noundef %3, i32 noundef %4) #1 {
  %6 = icmp sgt i32 %4, 0
  br i1 %6, label %.preheader.lr.ph, label %._crit_edge23

.preheader.lr.ph:                                 ; preds = %5
  %7 = icmp sgt i32 %3, 0
  %8 = sext i32 %2 to i64
  br i1 %7, label %.preheader.us.preheader, label %._crit_edge23

.preheader.us.preheader:                          ; preds = %.preheader.lr.ph
  %wide.trip.count = zext nneg i32 %3 to i64
  br label %.preheader.us

.preheader.us:                                    ; preds = %.preheader.us.preheader, %._crit_edge.us
  %.01622.us = phi i32 [ %24, %._crit_edge.us ], [ 0, %.preheader.us.preheader ]
  %.01721.us = phi ptr [ %23, %._crit_edge.us ], [ %0, %.preheader.us.preheader ]
  %.01820.us = phi ptr [ %22, %._crit_edge.us ], [ %1, %.preheader.us.preheader ]
  %invariant.gep = getelementptr i8, ptr %.01820.us, i64 %8
  br label %9

9:                                                ; preds = %.preheader.us, %9
  %indvars.iv = phi i64 [ 0, %.preheader.us ], [ %indvars.iv.next, %9 ]
  %10 = getelementptr inbounds nuw i8, ptr %.01820.us, i64 %indvars.iv
  %11 = load i8, ptr %10, align 1, !tbaa !8
  %12 = zext i8 %11 to i32
  %13 = shl nuw nsw i32 %12, 1
  %gep = getelementptr i8, ptr %invariant.gep, i64 %indvars.iv
  %14 = load i8, ptr %gep, align 1, !tbaa !8
  %15 = zext i8 %14 to i32
  %16 = add nuw nsw i32 %13, %15
  %17 = mul nuw nsw i32 %16, 683
  %18 = add nuw nsw i32 %17, 683
  %19 = lshr i32 %18, 11
  %20 = trunc nuw i32 %19 to i8
  %21 = getelementptr inbounds nuw i8, ptr %.01721.us, i64 %indvars.iv
  store i8 %20, ptr %21, align 1, !tbaa !8
  %indvars.iv.next = add nuw nsw i64 %indvars.iv, 1
  %exitcond.not = icmp eq i64 %indvars.iv.next, %wide.trip.count
  br i1 %exitcond.not, label %._crit_edge.us, label %9, !llvm.loop !21

._crit_edge.us:                                   ; preds = %9
  %22 = getelementptr inbounds i8, ptr %.01820.us, i64 %8
  %23 = getelementptr inbounds i8, ptr %.01721.us, i64 %8
  %24 = add nuw nsw i32 %.01622.us, 1
  %exitcond26.not = icmp eq i32 %24, %4
  br i1 %exitcond26.not, label %._crit_edge23, label %.preheader.us, !llvm.loop !22

._crit_edge23:                                    ; preds = %._crit_edge.us, %.preheader.lr.ph, %5
  ret void
}